; Function Attrs: mustprogress uwtable
define void @_ZNK32pxrInternal_v0_24__pxrReserved__8TsSpline18GetClosestKeyFrameEd(ptr dead_on_unwind noalias writable sret(%"class.std::optional") align 8 %0, ptr nocapture noundef nonnull readonly align 8 dereferenceable(16) %1, double noundef %2) local_unnamed_addr #3 align 2 {
  %4 = load ptr, ptr %1, align 8
  %5 = tail call noundef nonnull align 8 dereferenceable(24) ptr @_ZNK32pxrInternal_v0_24__pxrReserved__18TsSpline_KeyFrames12GetKeyFramesEv(ptr noundef nonnull align 8 dereferenceable(136) %4)
  %6 = tail call noundef ptr @_ZN32pxrInternal_v0_24__pxrReserved__21Ts_GetClosestKeyFrameERKNS_13TsKeyFrameMapEd(ptr noundef nonnull align 8 dereferenceable(24) %5, double noundef %2)
  %.not = icmp eq ptr %6, null
  br i1 %.not, label %8, label %7

7:                                                ; preds = %3
  tail call void @_ZN32pxrInternal_v0_24__pxrReserved__10TsKeyFrameC1ERKS0_(ptr noundef nonnull align 8 dereferenceable(72) %0, ptr noundef nonnull align 8 dereferenceable(72) %6)
  br label %8

8:                                                ; preds = %3, %7
  %.sink = phi i8 [ 1, %7 ], [ 0, %3 ]
  %9 = getelementptr inbounds nuw i8, ptr %0, i64 72
  store i8 %.sink, ptr %9, align 8
  ret void
}